target datalayout = "e-m:e-p270:32:32-p271:32:32-p272:64:64-i64:64-i128:128-f80:128-n8:16:32:64-S128"
target triple = "x86_64-pc-linux-gnu"

%"class.sat::cut" = type { i32, i32, [5 x i32], i64, i64 }
%"struct.sat::cut_val" = type { i64, i64 }
%class.vector = type { ptr }

; Function Attrs: mustprogress nounwind uwtable
define linkonce_odr hidden noundef i64 @_ZNK3sat3cut10table_maskEv(ptr noundef nonnull align 8 dereferenceable(48) %0) #6 comdat align 2 {
  %2 = alloca ptr, align 8
  store ptr %0, ptr %2, align 8, !tbaa !10
  %3 = load ptr, ptr %2, align 8
  %4 = getelementptr inbounds nuw %"class.sat::cut", ptr %3, i32 0, i32 1
  %5 = load i32, ptr %4, align 4, !tbaa !59
  %6 = zext i32 %5 to i64
  %7 = shl i64 1, %6
  %8 = shl i64 1, %7
  %9 = sub i64 %8, 1
  ret i64 %9
}

; Function Attrs: mustprogress nounwind uwtable
define linkonce_odr hidden noundef nonnull align 8 dereferenceable(16) ptr @_ZNK6vectorIN3sat7cut_valELb0EjEixEj(ptr noundef nonnull align 8 dereferenceable(8) %0, i32 noundef %1) #6 comdat align 2 {
  %3 = alloca ptr, align 8
  %4 = alloca i32, align 4
  store ptr %0, ptr %3, align 8, !tbaa !88
  store i32 %1, ptr %4, align 4, !tbaa !12
  %5 = load ptr, ptr %3, align 8
  %6 = getelementptr inbounds nuw %class.vector, ptr %5, i32 0, i32 0
  %7 = load ptr, ptr %6, align 8, !tbaa !90
  %8 = load i32, ptr %4, align 4, !tbaa !12
  %9 = zext i32 %8 to i64
  %10 = getelementptr inbounds nuw %"struct.sat::cut_val", ptr %7, i64 %9
  ret ptr %10
}

; Function Attrs: mustprogress nounwind uwtable
define linkonce_odr hidden noundef i32 @_ZNK3sat3cut4sizeEv(ptr noundef nonnull align 8 dereferenceable(48) %0) #6 comdat align 2 {
  %2 = alloca ptr, align 8
  store ptr %0, ptr %2, align 8, !tbaa !10
  %3 = load ptr, ptr %2, align 8
  %4 = getelementptr inbounds nuw %"class.sat::cut", ptr %3, i32 0, i32 1
  %5 = load i32, ptr %4, align 4, !tbaa !59
  ret i32 %5
}

; Function Attrs: mustprogress uwtable
define linkonce_odr hidden noundef i64 @_ZNK3sat3cut5tableEv(ptr noundef nonnull align 8 dereferenceable(48) %0) #4 comdat align 2 {
  %2 = alloca ptr, align 8
  store ptr %0, ptr %2, align 8, !tbaa !10
  %3 = load ptr, ptr %2, align 8
  %4 = getelementptr inbounds nuw %"class.sat::cut", ptr %3, i32 0, i32 3
  %5 = load i64, ptr %4, align 8, !tbaa !65
  %6 = getelementptr inbounds nuw %"class.sat::cut", ptr %3, i32 0, i32 4
  %7 = load i64, ptr %6, align 8, !tbaa !66
  %8 = or i64 %5, %7
  %9 = call noundef i64 @_ZNK3sat3cut10table_maskEv(ptr noundef nonnull align 8 dereferenceable(48) %3)
  %10 = and i64 %8, %9
  ret i64 %10
}

; Function Attrs: mustprogress nounwind uwtable
define linkonce_odr hidden void @_ZN3sat7cut_valC2Ev(ptr noundef nonnull align 8 dereferenceable(16) %0) unnamed_addr #6 comdat align 2 {
  %2 = alloca ptr, align 8
  store ptr %0, ptr %2, align 8, !tbaa !86
  %3 = load ptr, ptr %2, align 8
  %4 = getelementptr inbounds nuw %"struct.sat::cut_val", ptr %3, i32 0, i32 0
  store i64 0, ptr %4, align 8, !tbaa !81
  %5 = getelementptr inbounds nuw %"struct.sat::cut_val", ptr %3, i32 0, i32 1
  store i64 0, ptr %5, align 8, !tbaa !84
  ret void
}

; Function Attrs: mustprogress uwtable
define hidden { i64, i64 } @_ZNK3sat3cut4evalERK7svectorINS_7cut_valEjE(ptr noundef nonnull align 8 dereferenceable(48) %0, ptr noundef nonnull align 8 dereferenceable(8) %1) #4 align 2 {
  %3 = alloca %"struct.sat::cut_val", align 8
  %4 = alloca ptr, align 8
  %5 = alloca ptr, align 8
  %6 = alloca %"struct.sat::cut_val", align 8
  %7 = alloca i64, align 8
  %8 = alloca i64, align 8
  %9 = alloca i32, align 4
  %10 = alloca i32, align 4
  %11 = alloca i32, align 4
  %12 = alloca i32, align 4
  %13 = alloca i32, align 4
  store ptr %0, ptr %4, align 8, !tbaa !10
  store ptr %1, ptr %5, align 8, !tbaa !78
  %14 = load ptr, ptr %4, align 8
  call void @llvm.lifetime.start.p0(i64 16, ptr %6) #3
  call void @_ZN3sat7cut_valC2Ev(ptr noundef nonnull align 8 dereferenceable(16) %6)
  call void @llvm.lifetime.start.p0(i64 8, ptr %7) #3
  %15 = call noundef i64 @_ZNK3sat3cut5tableEv(ptr noundef nonnull align 8 dereferenceable(48) %14)
  store i64 %15, ptr %7, align 8, !tbaa !28
  call void @llvm.lifetime.start.p0(i64 8, ptr %8) #3
  %16 = call noundef i64 @_ZNK3sat3cut5tableEv(ptr noundef nonnull align 8 dereferenceable(48) %14)
  store i64 %16, ptr %8, align 8, !tbaa !28
  call void @llvm.lifetime.start.p0(i64 4, ptr %9) #3
  %17 = call noundef i32 @_ZNK3sat3cut4sizeEv(ptr noundef nonnull align 8 dereferenceable(48) %14)
  store i32 %17, ptr %9, align 4, !tbaa !12
  %18 = load i32, ptr %9, align 4, !tbaa !12
  %19 = icmp eq i32 %18, 1
  br i1 %19, label %20, label %29

20:                                               ; preds = %2
  %21 = load i64, ptr %7, align 8, !tbaa !28
  %22 = icmp eq i64 %21, 2
  br i1 %22, label %23, label %29

23:                                               ; preds = %20
  %24 = load ptr, ptr %5, align 8, !tbaa !78
  %25 = getelementptr inbounds nuw %"class.sat::cut", ptr %14, i32 0, i32 2
  %26 = getelementptr inbounds [5 x i32], ptr %25, i64 0, i64 0
  %27 = load i32, ptr %26, align 8, !tbaa !12
  %28 = call noundef nonnull align 8 dereferenceable(16) ptr @_ZNK6vectorIN3sat7cut_valELb0EjEixEj(ptr noundef nonnull align 8 dereferenceable(8) %24, i32 noundef %27)
  call void @llvm.memcpy.p0.p0.i64(ptr align 8 %3, ptr align 8 %28, i64 16, i1 false), !tbaa.struct !80
  store i32 1, ptr %10, align 4
  br label %91

29:                                               ; preds = %20, %2
  call void @llvm.lifetime.start.p0(i64 4, ptr %11) #3
  store i32 0, ptr %11, align 4, !tbaa !12
  br label %30

30:                                               ; preds = %87, %29
  %31 = load i32, ptr %11, align 4, !tbaa !12
  %32 = icmp ult i32 %31, 64
  br i1 %32, label %34, label %33

33:                                               ; preds = %30
  store i32 2, ptr %10, align 4
  call void @llvm.lifetime.end.p0(i64 4, ptr %11) #3
  br label %90

34:                                               ; preds = %30
  call void @llvm.lifetime.start.p0(i64 4, ptr %12) #3
  store i32 0, ptr %12, align 4, !tbaa !12
  call void @llvm.lifetime.start.p0(i64 4, ptr %13) #3
  store i32 0, ptr %13, align 4, !tbaa !12
  br label %35

35:                                               ; preds = %61, %34
  %36 = load i32, ptr %13, align 4, !tbaa !12
  %37 = load i32, ptr %9, align 4, !tbaa !12
  %38 = icmp ult i32 %36, %37
  br i1 %38, label %40, label %39

39:                                               ; preds = %35
  store i32 5, ptr %10, align 4
  call void @llvm.lifetime.end.p0(i64 4, ptr %13) #3
  br label %64

40:                                               ; preds = %35
  %41 = load ptr, ptr %5, align 8, !tbaa !78
  %42 = getelementptr inbounds nuw %"class.sat::cut", ptr %14, i32 0, i32 2
  %43 = load i32, ptr %13, align 4, !tbaa !12
  %44 = zext i32 %43 to i64
  %45 = getelementptr inbounds nuw [5 x i32], ptr %42, i64 0, i64 %44
  %46 = load i32, ptr %45, align 4, !tbaa !12
  %47 = call noundef nonnull align 8 dereferenceable(16) ptr @_ZNK6vectorIN3sat7cut_valELb0EjEixEj(ptr noundef nonnull align 8 dereferenceable(8) %41, i32 noundef %46)
  %48 = getelementptr inbounds nuw %"struct.sat::cut_val", ptr %47, i32 0, i32 0
  %49 = load i64, ptr %48, align 8, !tbaa !81
  %50 = load i32, ptr %11, align 4, !tbaa !12
  %51 = zext i32 %50 to i64
  %52 = lshr i64 %49, %51
  %53 = and i64 %52, 1
  %54 = load i32, ptr %13, align 4, !tbaa !12
  %55 = zext i32 %54 to i64
  %56 = shl i64 %53, %55
  %57 = load i32, ptr %12, align 4, !tbaa !12
  %58 = zext i32 %57 to i64
  %59 = or i64 %58, %56
  %60 = trunc i64 %59 to i32
  store i32 %60, ptr %12, align 4, !tbaa !12
  br label %61

61:                                               ; preds = %40
  %62 = load i32, ptr %13, align 4, !tbaa !12
  %63 = add i32 %62, 1
  store i32 %63, ptr %13, align 4, !tbaa !12
  br label %35, !llvm.loop !83

64:                                               ; preds = %39
  %65 = load i64, ptr %7, align 8, !tbaa !28
  %66 = load i32, ptr %12, align 4, !tbaa !12
  %67 = zext i32 %66 to i64
  %68 = lshr i64 %65, %67
  %69 = and i64 %68, 1
  %70 = load i32, ptr %11, align 4, !tbaa !12
  %71 = zext i32 %70 to i64
  %72 = shl i64 %69, %71
  %73 = getelementptr inbounds nuw %"struct.sat::cut_val", ptr %6, i32 0, i32 0
  %74 = load i64, ptr %73, align 8, !tbaa !81
  %75 = or i64 %74, %72
  store i64 %75, ptr %73, align 8, !tbaa !81
  %76 = load i64, ptr %8, align 8, !tbaa !28
  %77 = load i32, ptr %12, align 4, !tbaa !12
  %78 = zext i32 %77 to i64
  %79 = lshr i64 %76, %78
  %80 = and i64 %79, 1
  %81 = load i32, ptr %11, align 4, !tbaa !12
  %82 = zext i32 %81 to i64
  %83 = shl i64 %80, %82
  %84 = getelementptr inbounds nuw %"struct.sat::cut_val", ptr %6, i32 0, i32 1
  %85 = load i64, ptr %84, align 8, !tbaa !84
  %86 = or i64 %85, %83
  store i64 %86, ptr %84, align 8, !tbaa !84
  call void @llvm.lifetime.end.p0(i64 4, ptr %12) #3
  br label %87

87:                                               ; preds = %64
  %88 = load i32, ptr %11, align 4, !tbaa !12
  %89 = add i32 %88, 1
  store i32 %89, ptr %11, align 4, !tbaa !12
  br label %30, !llvm.loop !85

90:                                               ; preds = %33
  call void @llvm.memcpy.p0.p0.i64(ptr align 8 %3, ptr align 8 %6, i64 16, i1 false), !tbaa.struct !80
  store i32 1, ptr %10, align 4
  br label %91

91:                                               ; preds = %90, %23
  call void @llvm.lifetime.end.p0(i64 4, ptr %9) #3
  call void @llvm.lifetime.end.p0(i64 8, ptr %8) #3
  call void @llvm.lifetime.end.p0(i64 8, ptr %7) #3
  call void @llvm.lifetime.end.p0(i64 16, ptr %6) #3
  %92 = load { i64, i64 }, ptr %3, align 8
  ret { i64, i64 } %92
}