; Function Attrs: mustprogress nofree norecurse nosync nounwind willreturn memory(read, inaccessiblemem: none) uwtable
define hidden { i64, i64 } @_ZNK3sat3cut4evalERK7svectorINS_7cut_valEjE(ptr noundef nonnull readonly align 8 captures(none) dereferenceable(48) %0, ptr noundef nonnull readonly align 8 captures(none) dereferenceable(8) %1) local_unnamed_addr #10 align 2 {
  %3 = getelementptr inbounds nuw i8, ptr %0, i64 32
  %4 = load i64, ptr %3, align 8, !tbaa !44
  %5 = getelementptr inbounds nuw i8, ptr %0, i64 40
  %6 = load i64, ptr %5, align 8, !tbaa !45
  %7 = or i64 %6, %4
  %8 = getelementptr inbounds nuw i8, ptr %0, i64 4
  %9 = load i32, ptr %8, align 4, !tbaa !15
  %10 = zext i32 %9 to i64
  %11 = shl nuw i64 1, %10
  %notmask.i.i = shl nsw i64 -1, %11
  %12 = xor i64 %notmask.i.i, -1
  %13 = and i64 %7, %12
  %14 = icmp eq i32 %9, 1
  %15 = icmp eq i64 %13, 2
  %or.cond = and i1 %14, %15
  %16 = load ptr, ptr %1, align 8
  br i1 %or.cond, label %36, label %.preheader29

.preheader29:                                     ; preds = %2
  %.not = icmp eq i32 %9, 0
  %17 = getelementptr inbounds nuw i8, ptr %0, i64 8
  br i1 %.not, label %.preheader29.split, label %.preheader.us

.preheader.us:                                    ; preds = %.preheader29, %._crit_edge.us
  %indvars.iv42 = phi i64 [ %indvars.iv.next43, %._crit_edge.us ], [ 0, %.preheader29 ]
  %.sroa.6.033.us = phi i64 [ %34, %._crit_edge.us ], [ 0, %.preheader29 ]
  %.sroa.0.032.us = phi i64 [ %33, %._crit_edge.us ], [ 0, %.preheader29 ]
  br label %18

18:                                               ; preds = %.preheader.us, %18
  %indvars.iv = phi i64 [ 0, %.preheader.us ], [ %indvars.iv.next, %18 ]
  %.02330.us = phi i32 [ 0, %.preheader.us ], [ %28, %18 ]
  %19 = getelementptr inbounds nuw [5 x i32], ptr %17, i64 0, i64 %indvars.iv
  %20 = load i32, ptr %19, align 4, !tbaa !16
  %21 = zext i32 %20 to i64
  %22 = getelementptr inbounds nuw %"struct.sat::cut_val", ptr %16, i64 %21
  %23 = load i64, ptr %22, align 8, !tbaa !59
  %24 = lshr i64 %23, %indvars.iv42
  %25 = and i64 %24, 1
  %26 = shl nuw i64 %25, %indvars.iv
  %27 = trunc i64 %26 to i32
  %28 = or i32 %.02330.us, %27
  %indvars.iv.next = add nuw nsw i64 %indvars.iv, 1
  %exitcond.not = icmp eq i64 %indvars.iv.next, %10
  br i1 %exitcond.not, label %._crit_edge.us, label %18, !llvm.loop !61

._crit_edge.us:                                   ; preds = %18
  %29 = zext nneg i32 %28 to i64
  %30 = lshr i64 %13, %29
  %31 = and i64 %30, 1
  %32 = shl nuw i64 %31, %indvars.iv42
  %33 = or i64 %32, %.sroa.0.032.us
  %34 = or i64 %32, %.sroa.6.033.us
  %indvars.iv.next43 = add nuw nsw i64 %indvars.iv42, 1
  %exitcond45.not = icmp eq i64 %indvars.iv.next43, 64
  br i1 %exitcond45.not, label %.loopexit, label %.preheader.us, !llvm.loop !62

.preheader29.split:                               ; preds = %.preheader29
  %35 = and i64 %13, 1
  br label %.preheader

36:                                               ; preds = %2
  %37 = getelementptr inbounds nuw i8, ptr %0, i64 8
  %38 = load i32, ptr %37, align 8, !tbaa !16
  %39 = zext i32 %38 to i64
  %40 = getelementptr inbounds nuw %"struct.sat::cut_val", ptr %16, i64 %39
  %.sroa.3.0..sroa_idx = getelementptr inbounds nuw i8, ptr %40, i64 8
  %.sroa.3.0.copyload = load i64, ptr %.sroa.3.0..sroa_idx, align 8, !tbaa !21
  %.sroa.0.0.in.sroa.speculate.load. = load i64, ptr %40, align 8, !tbaa !21
  br label %.loopexit

.preheader:                                       ; preds = %.preheader29.split, %.preheader
  %indvars.iv46 = phi i64 [ 0, %.preheader29.split ], [ %indvars.iv.next47, %.preheader ]
  %.sroa.6.033 = phi i64 [ 0, %.preheader29.split ], [ %43, %.preheader ]
  %.sroa.0.032 = phi i64 [ 0, %.preheader29.split ], [ %42, %.preheader ]
  %41 = shl nuw i64 %35, %indvars.iv46
  %42 = or i64 %41, %.sroa.0.032
  %43 = or i64 %41, %.sroa.6.033
  %indvars.iv.next47 = add nuw nsw i64 %indvars.iv46, 1
  %exitcond49.not = icmp eq i64 %indvars.iv.next47, 64
  br i1 %exitcond49.not, label %.loopexit, label %.preheader, !llvm.loop !62

.loopexit:                                        ; preds = %._crit_edge.us, %.preheader, %36
  %.sroa.0.0.in.sroa.speculated = phi i64 [ %.sroa.0.0.in.sroa.speculate.load., %36 ], [ %42, %.preheader ], [ %33, %._crit_edge.us ]
  %.sroa.3.0 = phi i64 [ %.sroa.3.0.copyload, %36 ], [ %43, %.preheader ], [ %34, %._crit_edge.us ]
  %.fca.0.insert = insertvalue { i64, i64 } poison, i64 %.sroa.0.0.in.sroa.speculated, 0
  %.fca.1.insert = insertvalue { i64, i64 } %.fca.0.insert, i64 %.sroa.3.0, 1
  ret { i64, i64 } %.fca.1.insert
}